target datalayout = "e-m:e-p270:32:32-p271:32:32-p272:64:64-i64:64-i128:128-f80:128-n8:16:32:64-S128"
target triple = "x86_64-pc-linux-gnu"

; Function Attrs: mustprogress nounwind uwtable
define noundef ptr @_Z14aligned_mallocmm(i64 noundef %0, i64 noundef %1) #4 {
  %3 = alloca i64, align 8
  %4 = alloca i64, align 8
  %5 = alloca ptr, align 8
  %6 = alloca ptr, align 8
  store i64 %0, ptr %3, align 8
  store i64 %1, ptr %4, align 8
  %7 = load i64, ptr %3, align 8
  %8 = load i64, ptr %4, align 8
  %9 = add i64 %7, %8
  %10 = add i64 %9, 8
  %11 = call noalias ptr @malloc(i64 noundef %10) #32
  store ptr %11, ptr %5, align 8
  %12 = load ptr, ptr %5, align 8
  %13 = getelementptr inbounds i8, ptr %12, i64 8
  store ptr %13, ptr %6, align 8
  %14 = load ptr, ptr %6, align 8
  %15 = load i64, ptr %4, align 8
  %16 = sub i64 %15, 1
  %17 = getelementptr inbounds i8, ptr %14, i64 %16
  %18 = ptrtoint ptr %17 to i64
  %19 = load i64, ptr %4, align 8
  %20 = sub i64 %19, 1
  %21 = xor i64 %20, -1
  %22 = and i64 %18, %21
  %23 = inttoptr i64 %22 to ptr
  store ptr %23, ptr %6, align 8
  %24 = load ptr, ptr %5, align 8
  %25 = load ptr, ptr %6, align 8
  %26 = getelementptr inbounds ptr, ptr %25, i64 -1
  store ptr %24, ptr %26, align 8
  %27 = load ptr, ptr %6, align 8
  ret ptr %27
}