; Function Attrs: mustprogress nofree nounwind willreturn memory(write, inaccessiblemem: readwrite) uwtable
define noundef ptr @_Z14aligned_mallocmm(i64 noundef %0, i64 noundef %1) local_unnamed_addr #12 {
  %3 = add i64 %0, 8
  %4 = add i64 %3, %1
  %5 = tail call noalias ptr @malloc(i64 noundef %4) #47
  %6 = getelementptr inbounds i8, ptr %5, i64 8
  %7 = getelementptr i8, ptr %6, i64 %1
  %8 = getelementptr i8, ptr %7, i64 -1
  %9 = ptrtoint ptr %8 to i64
  %10 = sub i64 0, %1
  %11 = and i64 %9, %10
  %12 = inttoptr i64 %11 to ptr
  %13 = getelementptr inbounds i8, ptr %12, i64 -8
  store ptr %5, ptr %13, align 8
  ret ptr %12
}